; Function Attrs: mustprogress uwtable
define void @_Z20grpc_error_add_childN4absl12lts_202407226StatusES1_(ptr dead_on_unwind noalias writable writeonly sret(%"class.absl::lts_20240722::Status") align 8 captures(none) %0, ptr noundef %1, ptr noundef captures(none) %2) local_unnamed_addr #3 personality ptr @__gxx_personality_v0 {
  %4 = alloca %"class.absl::lts_20240722::Status", align 8
  %5 = load i64, ptr %1, align 8, !tbaa !10
  %6 = icmp eq i64 %5, 1
  %7 = load i64, ptr %2, align 8, !tbaa !10
  br i1 %6, label %26, label %8

8:                                                ; preds = %3
  %9 = icmp eq i64 %7, 1
  br i1 %9, label %_ZN4absl12lts_202407226StatusD2Ev.exit, label %10

10:                                               ; preds = %8
  store i64 %7, ptr %4, align 8, !tbaa !10
  %11 = and i64 %7, 1
  %.not.i.i = icmp eq i64 %11, 0
  br i1 %.not.i.i, label %12, label %_ZN4absl12lts_202407226StatusC2ERKS1_.exit

12:                                               ; preds = %10
  %13 = inttoptr i64 %7 to ptr
  %14 = atomicrmw add ptr %13, i32 1 monotonic, align 4
  br label %_ZN4absl12lts_202407226StatusC2ERKS1_.exit

_ZN4absl12lts_202407226StatusC2ERKS1_.exit:       ; preds = %10, %12
  invoke void @_ZN9grpc_core14StatusAddChildEPN4absl12lts_202407226StatusES2_(ptr noundef nonnull %1, ptr noundef nonnull %4)
          to label %15 unwind label %23

15:                                               ; preds = %_ZN4absl12lts_202407226StatusC2ERKS1_.exit
  %16 = load i64, ptr %4, align 8, !tbaa !10
  %17 = and i64 %16, 1
  %.not.i.i1 = icmp eq i64 %17, 0
  br i1 %.not.i.i1, label %18, label %_ZN4absl12lts_202407226StatusD2Ev.exit

18:                                               ; preds = %15
  %19 = inttoptr i64 %16 to ptr
  invoke void @_ZNK4absl12lts_2024072215status_internal9StatusRep5UnrefEv(ptr noundef nonnull align 8 dereferenceable(48) %19)
          to label %_ZN4absl12lts_202407226StatusD2Ev.exit unwind label %20

20:                                               ; preds = %18
  %21 = landingpad { ptr, i32 }
          catch ptr null
  %22 = extractvalue { ptr, i32 } %21, 0
  call void @__clang_call_terminate(ptr %22) #20
  unreachable

23:                                               ; preds = %_ZN4absl12lts_202407226StatusC2ERKS1_.exit
  %24 = landingpad { ptr, i32 }
          cleanup
  call void @_ZN4absl12lts_202407226StatusD2Ev(ptr noundef nonnull align 8 dereferenceable(8) %4) #22
  resume { ptr, i32 } %24

_ZN4absl12lts_202407226StatusD2Ev.exit:           ; preds = %18, %15, %8
  %25 = load i64, ptr %1, align 8, !tbaa !10
  br label %26

26:                                               ; preds = %3, %_ZN4absl12lts_202407226StatusD2Ev.exit
  %.sink2 = phi i64 [ %25, %_ZN4absl12lts_202407226StatusD2Ev.exit ], [ %7, %3 ]
  %.sink = phi ptr [ %1, %_ZN4absl12lts_202407226StatusD2Ev.exit ], [ %2, %3 ]
  store i64 %.sink2, ptr %0, align 8, !tbaa !10
  store i64 55, ptr %.sink, align 8, !tbaa !10
  ret void
}